; Function Attrs: mustprogress uwtable
define internal fastcc void @_ZN8facebook5velox4exec12_GLOBAL__N_120ExprExceptionContextC2EPKNS1_4ExprEPKNS0_9RowVectorEPKNS1_7ExprSetE(ptr noundef nonnull align 8 dereferenceable(120) %this, ptr noundef %expr, ptr noundef %vector, ptr noundef %parentExprSet) unnamed_addr #3 align 2 personality ptr @__gxx_personality_v0 {
entry:
  %ref.tmp = alloca %"class.std::allocator.8", align 1
  %ref.tmp2 = alloca %"class.std::allocator.8", align 1
  %ref.tmp5 = alloca %"class.std::allocator.8", align 1
  store ptr %expr, ptr %this, align 8
  %vector_ = getelementptr inbounds i8, ptr %this, i64 8
  store ptr %vector, ptr %vector_, align 8
  %parentExprSet_ = getelementptr inbounds i8, ptr %this, i64 16
  store ptr %parentExprSet, ptr %parentExprSet_, align 8
  %dataPath_ = getelementptr inbounds i8, ptr %this, i64 24
  call void @_ZNSaIcEC1Ev(ptr noundef nonnull align 1 dereferenceable(1) %ref.tmp) #31
  %call.i3 = invoke noundef ptr @_ZNSt7__cxx1112basic_stringIcSt11char_traitsIcESaIcEE13_M_local_dataEv(ptr noundef nonnull align 8 dereferenceable(32) %dataPath_)
          to label %call.i.noexc unwind label %lpad

call.i.noexc:                                     ; preds = %entry
  invoke void @_ZNSt7__cxx1112basic_stringIcSt11char_traitsIcESaIcEE12_Alloc_hiderC1EPcRKS3_(ptr noundef nonnull align 8 dereferenceable(8) %dataPath_, ptr noundef %call.i3, ptr noundef nonnull align 1 dereferenceable(1) %ref.tmp)
          to label %.noexc unwind label %lpad

.noexc:                                           ; preds = %call.i.noexc
  invoke void @_ZNSt7__cxx1112basic_stringIcSt11char_traitsIcESaIcEE12_M_constructIPKcEEvT_S8_St20forward_iterator_tag(ptr noundef nonnull align 8 dereferenceable(32) %dataPath_, ptr noundef nonnull @.str.13, ptr noundef nonnull @.str.13)
          to label %invoke.cont unwind label %lpad.i

lpad.i:                                           ; preds = %.noexc
  %0 = landingpad { ptr, i32 }
          cleanup
  call void @_ZNSaIcED2Ev(ptr noundef nonnull align 1 dereferenceable(1) %dataPath_) #31
  br label %lpad.body

invoke.cont:                                      ; preds = %.noexc
  call void @_ZNSaIcED1Ev(ptr noundef nonnull align 1 dereferenceable(1) %ref.tmp) #31
  %sqlPath_ = getelementptr inbounds i8, ptr %this, i64 56
  call void @_ZNSaIcEC1Ev(ptr noundef nonnull align 1 dereferenceable(1) %ref.tmp2) #31
  %call.i8 = invoke noundef ptr @_ZNSt7__cxx1112basic_stringIcSt11char_traitsIcESaIcEE13_M_local_dataEv(ptr noundef nonnull align 8 dereferenceable(32) %sqlPath_)
          to label %call.i.noexc7 unwind label %lpad3

call.i.noexc7:                                    ; preds = %invoke.cont
  invoke void @_ZNSt7__cxx1112basic_stringIcSt11char_traitsIcESaIcEE12_Alloc_hiderC1EPcRKS3_(ptr noundef nonnull align 8 dereferenceable(8) %sqlPath_, ptr noundef %call.i8, ptr noundef nonnull align 1 dereferenceable(1) %ref.tmp2)
          to label %.noexc9 unwind label %lpad3

.noexc9:                                          ; preds = %call.i.noexc7
  invoke void @_ZNSt7__cxx1112basic_stringIcSt11char_traitsIcESaIcEE12_M_constructIPKcEEvT_S8_St20forward_iterator_tag(ptr noundef nonnull align 8 dereferenceable(32) %sqlPath_, ptr noundef nonnull @.str.13, ptr noundef nonnull @.str.13)
          to label %invoke.cont4 unwind label %lpad.i6

lpad.i6:                                          ; preds = %.noexc9
  %1 = landingpad { ptr, i32 }
          cleanup
  call void @_ZNSaIcED2Ev(ptr noundef nonnull align 1 dereferenceable(1) %sqlPath_) #31
  br label %lpad3.body

invoke.cont4:                                     ; preds = %.noexc9
  call void @_ZNSaIcED1Ev(ptr noundef nonnull align 1 dereferenceable(1) %ref.tmp2) #31
  %allExprSqlPath_ = getelementptr inbounds i8, ptr %this, i64 88
  call void @_ZNSaIcEC1Ev(ptr noundef nonnull align 1 dereferenceable(1) %ref.tmp5) #31
  %call.i16 = invoke noundef ptr @_ZNSt7__cxx1112basic_stringIcSt11char_traitsIcESaIcEE13_M_local_dataEv(ptr noundef nonnull align 8 dereferenceable(32) %allExprSqlPath_)
          to label %call.i.noexc15 unwind label %lpad6

call.i.noexc15:                                   ; preds = %invoke.cont4
  invoke void @_ZNSt7__cxx1112basic_stringIcSt11char_traitsIcESaIcEE12_Alloc_hiderC1EPcRKS3_(ptr noundef nonnull align 8 dereferenceable(8) %allExprSqlPath_, ptr noundef %call.i16, ptr noundef nonnull align 1 dereferenceable(1) %ref.tmp5)
          to label %.noexc17 unwind label %lpad6

.noexc17:                                         ; preds = %call.i.noexc15
  invoke void @_ZNSt7__cxx1112basic_stringIcSt11char_traitsIcESaIcEE12_M_constructIPKcEEvT_S8_St20forward_iterator_tag(ptr noundef nonnull align 8 dereferenceable(32) %allExprSqlPath_, ptr noundef nonnull @.str.15, ptr noundef nonnull getelementptr inbounds ([4 x i8], ptr @.str.15, i64 0, i64 3))
          to label %invoke.cont7 unwind label %lpad.i14

lpad.i14:                                         ; preds = %.noexc17
  %2 = landingpad { ptr, i32 }
          cleanup
  call void @_ZNSaIcED2Ev(ptr noundef nonnull align 1 dereferenceable(1) %allExprSqlPath_) #31
  br label %lpad6.body

invoke.cont7:                                     ; preds = %.noexc17
  call void @_ZNSaIcED1Ev(ptr noundef nonnull align 1 dereferenceable(1) %ref.tmp5) #31
  ret void

lpad:                                             ; preds = %call.i.noexc, %entry
  %3 = landingpad { ptr, i32 }
          cleanup
  br label %lpad.body

lpad.body:                                        ; preds = %lpad.i, %lpad
  %eh.lpad-body = phi { ptr, i32 } [ %3, %lpad ], [ %0, %lpad.i ]
  call void @_ZNSaIcED1Ev(ptr noundef nonnull align 1 dereferenceable(1) %ref.tmp) #31
  br label %eh.resume

lpad3:                                            ; preds = %call.i.noexc7, %invoke.cont
  %4 = landingpad { ptr, i32 }
          cleanup
  br label %lpad3.body

lpad3.body:                                       ; preds = %lpad.i6, %lpad3
  %eh.lpad-body10 = phi { ptr, i32 } [ %4, %lpad3 ], [ %1, %lpad.i6 ]
  call void @_ZNSaIcED1Ev(ptr noundef nonnull align 1 dereferenceable(1) %ref.tmp2) #31
  br label %ehcleanup

lpad6:                                            ; preds = %call.i.noexc15, %invoke.cont4
  %5 = landingpad { ptr, i32 }
          cleanup
  br label %lpad6.body

lpad6.body:                                       ; preds = %lpad.i14, %lpad6
  %eh.lpad-body18 = phi { ptr, i32 } [ %5, %lpad6 ], [ %2, %lpad.i14 ]
  call void @_ZNSaIcED1Ev(ptr noundef nonnull align 1 dereferenceable(1) %ref.tmp5) #31
  call void @_ZNSt7__cxx1112basic_stringIcSt11char_traitsIcESaIcEED1Ev(ptr noundef nonnull align 8 dereferenceable(32) %sqlPath_) #31
  br label %ehcleanup

ehcleanup:                                        ; preds = %lpad6.body, %lpad3.body
  %.pn = phi { ptr, i32 } [ %eh.lpad-body18, %lpad6.body ], [ %eh.lpad-body10, %lpad3.body ]
  call void @_ZNSt7__cxx1112basic_stringIcSt11char_traitsIcESaIcEED1Ev(ptr noundef nonnull align 8 dereferenceable(32) %dataPath_) #31
  br label %eh.resume

eh.resume:                                        ; preds = %ehcleanup, %lpad.body
  %.pn.pn = phi { ptr, i32 } [ %.pn, %ehcleanup ], [ %eh.lpad-body, %lpad.body ]
  resume { ptr, i32 } %.pn.pn
}